target datalayout = "e-m:e-p270:32:32-p271:32:32-p272:64:64-i64:64-i128:128-f80:128-n8:16:32:64-S128"
target triple = "x86_64-pc-linux-gnu"

%struct.Vec_Int_t_ = type { i32, i32, ptr }
%struct.Vec_Wec_t_ = type { i32, i32, ptr }

@.str.35 = private unnamed_addr constant [3 x i8] c"wb\00", align 1
@.str.36 = private unnamed_addr constant [36 x i8] c"Cannot open file \22%s\22 for writing.\0A\00", align 1
@.str.37 = private unnamed_addr constant [34 x i8] c"# Data extracted from JSON file:\0A\00", align 1
@.str.38 = private unnamed_addr constant [2 x i8] c"\0A\00", align 1

; Function Attrs: nounwind uwtable
define internal ptr @Vec_WecEntry(ptr noundef %0, i32 noundef %1) #0 {
  %3 = alloca ptr, align 8
  %4 = alloca i32, align 4
  store ptr %0, ptr %3, align 8
  store i32 %1, ptr %4, align 4
  %5 = load ptr, ptr %3, align 8
  %6 = getelementptr inbounds %struct.Vec_Wec_t_, ptr %5, i32 0, i32 2
  %7 = load ptr, ptr %6, align 8
  %8 = load i32, ptr %4, align 4
  %9 = sext i32 %8 to i64
  %10 = getelementptr inbounds %struct.Vec_Int_t_, ptr %7, i64 %9
  ret ptr %10
}

; Function Attrs: nounwind uwtable
define void @Json_Extract(ptr noundef %0, ptr noundef %1, ptr noundef %2) #0 {
  %4 = alloca ptr, align 8
  %5 = alloca ptr, align 8
  %6 = alloca ptr, align 8
  %7 = alloca i32, align 4
  %8 = alloca ptr, align 8
  store ptr %0, ptr %4, align 8
  store ptr %1, ptr %5, align 8
  store ptr %2, ptr %6, align 8
  store i32 0, ptr %7, align 4
  %9 = load ptr, ptr %4, align 8
  %10 = call noalias ptr @fopen(ptr noundef %9, ptr noundef @.str.35)
  store ptr %10, ptr %8, align 8
  %11 = load ptr, ptr %8, align 8
  %12 = icmp eq ptr %11, null
  br i1 %12, label %13, label %16

13:                                               ; preds = %3
  %14 = load ptr, ptr %4, align 8
  %15 = call i32 (ptr, ...) @printf(ptr noundef @.str.36, ptr noundef %14)
  br label %28

16:                                               ; preds = %3
  %17 = load ptr, ptr %8, align 8
  %18 = call i32 (ptr, ptr, ...) @fprintf(ptr noundef %17, ptr noundef @.str.37) #9
  %19 = load ptr, ptr %8, align 8
  %20 = load ptr, ptr %5, align 8
  %21 = load ptr, ptr %6, align 8
  %22 = load ptr, ptr %6, align 8
  %23 = call ptr @Vec_WecEntry(ptr noundef %22, i32 noundef 0)
  call void @Json_Extract_rec(ptr noundef %19, ptr noundef %20, ptr noundef %21, ptr noundef %23, i32 noundef 0, ptr noundef %7)
  %24 = load ptr, ptr %8, align 8
  %25 = call i32 (ptr, ptr, ...) @fprintf(ptr noundef %24, ptr noundef @.str.38) #9
  %26 = load ptr, ptr %8, align 8
  %27 = call i32 @fclose(ptr noundef %26)
  br label %28

28:                                               ; preds = %16, %13
  ret void
}