; Function Attrs: nounwind uwtable
define void @Json_Extract(ptr noundef %0, ptr noundef %1, ptr noundef %2) local_unnamed_addr #2 {
  %4 = alloca i32, align 4
  store i32 0, ptr %4, align 4
  %5 = tail call noalias ptr @fopen(ptr noundef %0, ptr noundef nonnull @.str.35)
  %6 = icmp eq ptr %5, null
  br i1 %6, label %7, label %9

7:                                                ; preds = %3
  %8 = tail call i32 (ptr, ...) @printf(ptr noundef nonnull dereferenceable(1) @.str.36, ptr noundef %0)
  br label %13

9:                                                ; preds = %3
  %10 = tail call i64 @fwrite(ptr nonnull @.str.37, i64 33, i64 1, ptr nonnull %5)
  %11 = getelementptr i8, ptr %2, i64 8
  %.val = load ptr, ptr %11, align 8
  call void @Json_Extract_rec(ptr noundef nonnull %5, ptr noundef %1, ptr noundef %2, ptr noundef %.val, i32 noundef 0, ptr noundef nonnull %4)
  %fputc = call i32 @fputc(i32 10, ptr nonnull %5)
  %12 = call i32 @fclose(ptr noundef nonnull %5)
  br label %13

13:                                               ; preds = %9, %7
  ret void
}